target datalayout = "e-m:e-p270:32:32-p271:32:32-p272:64:64-i64:64-i128:128-f80:128-n8:16:32:64-S128"
target triple = "x86_64-pc-linux-gnu"

%"class.cv::Size_" = type { i32, i32 }
%"class.cv::Mat" = type { i32, i32, i32, i32, ptr, ptr, ptr, ptr, ptr, ptr, %"struct.cv::MatSize", %"struct.cv::MatStep" }
%"struct.cv::MatSize" = type { ptr }
%"struct.cv::MatStep" = type { ptr, [2 x i64] }
%"struct.cv::MomentsInTile_SIMD.3" = type { i8 }

; Function Attrs: mustprogress nounwind uwtable
define linkonce_odr hidden void @_ZN2cv5Size_IiEC2Eii(ptr noundef nonnull align 4 dereferenceable(8) %0, i32 noundef %1, i32 noundef %2) unnamed_addr #0 comdat align 2 {
  %4 = alloca ptr, align 8
  %5 = alloca i32, align 4
  %6 = alloca i32, align 4
  store ptr %0, ptr %4, align 8
  store i32 %1, ptr %5, align 4
  store i32 %2, ptr %6, align 4
  %7 = load ptr, ptr %4, align 8
  %8 = getelementptr inbounds %"class.cv::Size_", ptr %7, i32 0, i32 0
  %9 = load i32, ptr %5, align 4
  store i32 %9, ptr %8, align 4
  %10 = getelementptr inbounds %"class.cv::Size_", ptr %7, i32 0, i32 1
  %11 = load i32, ptr %6, align 4
  store i32 %11, ptr %10, align 4
  ret void
}

; Function Attrs: mustprogress nounwind uwtable
define linkonce_odr hidden noundef i32 @_ZN2cv18MomentsInTile_SIMDIfddEclEPKfiRdS4_S4_S4_(ptr noundef nonnull align 1 dereferenceable(1) %0, ptr noundef %1, i32 noundef %2, ptr noundef nonnull align 8 dereferenceable(8) %3, ptr noundef nonnull align 8 dereferenceable(8) %4, ptr noundef nonnull align 8 dereferenceable(8) %5, ptr noundef nonnull align 8 dereferenceable(8) %6) #0 comdat align 2 {
  %8 = alloca ptr, align 8
  %9 = alloca ptr, align 8
  %10 = alloca i32, align 4
  %11 = alloca ptr, align 8
  %12 = alloca ptr, align 8
  %13 = alloca ptr, align 8
  %14 = alloca ptr, align 8
  store ptr %0, ptr %8, align 8
  store ptr %1, ptr %9, align 8
  store i32 %2, ptr %10, align 4
  store ptr %3, ptr %11, align 8
  store ptr %4, ptr %12, align 8
  store ptr %5, ptr %13, align 8
  store ptr %6, ptr %14, align 8
  ret i32 0
}

; Function Attrs: mustprogress nounwind uwtable
define linkonce_odr hidden noundef ptr @_ZNK2cv3Mat3ptrIfEEPKT_i(ptr noundef nonnull align 8 dereferenceable(96) %0, i32 noundef %1) #0 comdat align 2 {
  %3 = alloca ptr, align 8
  %4 = alloca i32, align 4
  store ptr %0, ptr %3, align 8
  store i32 %1, ptr %4, align 4
  %5 = load ptr, ptr %3, align 8
  %6 = getelementptr inbounds %"class.cv::Mat", ptr %5, i32 0, i32 4
  %7 = load ptr, ptr %6, align 8
  %8 = getelementptr inbounds %"class.cv::Mat", ptr %5, i32 0, i32 11
  %9 = getelementptr inbounds %"struct.cv::MatStep", ptr %8, i32 0, i32 0
  %10 = load ptr, ptr %9, align 8
  %11 = getelementptr inbounds i64, ptr %10, i64 0
  %12 = load i64, ptr %11, align 8
  %13 = load i32, ptr %4, align 4
  %14 = sext i32 %13 to i64
  %15 = mul i64 %12, %14
  %16 = getelementptr inbounds i8, ptr %7, i64 %15
  ret ptr %16
}

; Function Attrs: mustprogress uwtable
define linkonce_odr hidden i64 @_ZNK2cv7MatSizeclEv(ptr noundef nonnull align 8 dereferenceable(8) %0) #1 comdat align 2 {
  %2 = alloca %"class.cv::Size_", align 4
  %3 = alloca ptr, align 8
  store ptr %0, ptr %3, align 8
  %4 = load ptr, ptr %3, align 8
  %5 = getelementptr inbounds %"struct.cv::MatSize", ptr %4, i32 0, i32 0
  %6 = load ptr, ptr %5, align 8
  %7 = getelementptr inbounds i32, ptr %6, i64 1
  %8 = load i32, ptr %7, align 4
  %9 = getelementptr inbounds %"struct.cv::MatSize", ptr %4, i32 0, i32 0
  %10 = load ptr, ptr %9, align 8
  %11 = getelementptr inbounds i32, ptr %10, i64 0
  %12 = load i32, ptr %11, align 4
  call void @_ZN2cv5Size_IiEC2Eii(ptr noundef nonnull align 4 dereferenceable(8) %2, i32 noundef %8, i32 noundef %12)
  %13 = load i64, ptr %2, align 4
  ret i64 %13
}

; Function Attrs: mustprogress uwtable
define internal void @_ZN2cvL13momentsInTileIfddEEvRKNS_3MatEPd(ptr noundef nonnull align 8 dereferenceable(96) %0, ptr noundef %1) #1 {
  %3 = alloca ptr, align 8
  %4 = alloca ptr, align 8
  %5 = alloca %"class.cv::Size_", align 4
  %6 = alloca i32, align 4
  %7 = alloca i32, align 4
  %8 = alloca [10 x double], align 16
  %9 = alloca %"struct.cv::MomentsInTile_SIMD.3", align 1
  %10 = alloca ptr, align 8
  %11 = alloca double, align 8
  %12 = alloca double, align 8
  %13 = alloca double, align 8
  %14 = alloca double, align 8
  %15 = alloca double, align 8
  %16 = alloca double, align 8
  %17 = alloca double, align 8
  %18 = alloca double, align 8
  %19 = alloca double, align 8
  store ptr %0, ptr %3, align 8
  store ptr %1, ptr %4, align 8
  %20 = load ptr, ptr %3, align 8
  %21 = getelementptr inbounds %"class.cv::Mat", ptr %20, i32 0, i32 10
  %22 = call i64 @_ZNK2cv7MatSizeclEv(ptr noundef nonnull align 8 dereferenceable(8) %21)
  store i64 %22, ptr %5, align 4
  call void @llvm.memset.p0.i64(ptr align 16 %8, i8 0, i64 80, i1 false)
  store i32 0, ptr %7, align 4
  br label %23

23:                                               ; preds = %129, %2
  %24 = load i32, ptr %7, align 4
  %25 = getelementptr inbounds %"class.cv::Size_", ptr %5, i32 0, i32 1
  %26 = load i32, ptr %25, align 4
  %27 = icmp slt i32 %24, %26
  br i1 %27, label %28, label %132

28:                                               ; preds = %23
  %29 = load ptr, ptr %3, align 8
  %30 = load i32, ptr %7, align 4
  %31 = call noundef ptr @_ZNK2cv3Mat3ptrIfEEPKT_i(ptr noundef nonnull align 8 dereferenceable(96) %29, i32 noundef %30)
  store ptr %31, ptr %10, align 8
  store double 0.000000e+00, ptr %11, align 8
  store double 0.000000e+00, ptr %12, align 8
  store double 0.000000e+00, ptr %13, align 8
  store double 0.000000e+00, ptr %14, align 8
  %32 = load ptr, ptr %10, align 8
  %33 = getelementptr inbounds %"class.cv::Size_", ptr %5, i32 0, i32 0
  %34 = load i32, ptr %33, align 4
  %35 = call noundef i32 @_ZN2cv18MomentsInTile_SIMDIfddEclEPKfiRdS4_S4_S4_(ptr noundef nonnull align 1 dereferenceable(1) %9, ptr noundef %32, i32 noundef %34, ptr noundef nonnull align 8 dereferenceable(8) %11, ptr noundef nonnull align 8 dereferenceable(8) %12, ptr noundef nonnull align 8 dereferenceable(8) %13, ptr noundef nonnull align 8 dereferenceable(8) %14)
  store i32 %35, ptr %6, align 4
  br label %36

36:                                               ; preds = %70, %28
  %37 = load i32, ptr %6, align 4
  %38 = getelementptr inbounds %"class.cv::Size_", ptr %5, i32 0, i32 0
  %39 = load i32, ptr %38, align 4
  %40 = icmp slt i32 %37, %39
  br i1 %40, label %41, label %73

41:                                               ; preds = %36
  %42 = load ptr, ptr %10, align 8
  %43 = load i32, ptr %6, align 4
  %44 = sext i32 %43 to i64
  %45 = getelementptr inbounds float, ptr %42, i64 %44
  %46 = load float, ptr %45, align 4
  %47 = fpext float %46 to double
  store double %47, ptr %15, align 8
  %48 = load i32, ptr %6, align 4
  %49 = sitofp i32 %48 to double
  %50 = load double, ptr %15, align 8
  %51 = fmul double %49, %50
  store double %51, ptr %16, align 8
  %52 = load double, ptr %15, align 8
  %53 = load double, ptr %11, align 8
  %54 = fadd double %53, %52
  store double %54, ptr %11, align 8
  %55 = load double, ptr %16, align 8
  %56 = load double, ptr %12, align 8
  %57 = fadd double %56, %55
  store double %57, ptr %12, align 8
  %58 = load double, ptr %16, align 8
  %59 = load i32, ptr %6, align 4
  %60 = sitofp i32 %59 to double
  %61 = fmul double %58, %60
  store double %61, ptr %17, align 8
  %62 = load double, ptr %17, align 8
  %63 = load double, ptr %13, align 8
  %64 = fadd double %63, %62
  store double %64, ptr %13, align 8
  %65 = load double, ptr %17, align 8
  %66 = load i32, ptr %6, align 4
  %67 = sitofp i32 %66 to double
  %68 = load double, ptr %14, align 8
  %69 = call double @llvm.fmuladd.f64(double %65, double %67, double %68)
  store double %69, ptr %14, align 8
  br label %70

70:                                               ; preds = %41
  %71 = load i32, ptr %6, align 4
  %72 = add nsw i32 %71, 1
  store i32 %72, ptr %6, align 4
  br label %36, !llvm.loop !18

73:                                               ; preds = %36
  %74 = load i32, ptr %7, align 4
  %75 = sitofp i32 %74 to double
  %76 = load double, ptr %11, align 8
  %77 = fmul double %75, %76
  store double %77, ptr %18, align 8
  %78 = load i32, ptr %7, align 4
  %79 = load i32, ptr %7, align 4
  %80 = mul nsw i32 %78, %79
  %81 = sitofp i32 %80 to double
  store double %81, ptr %19, align 8
  %82 = load double, ptr %18, align 8
  %83 = load double, ptr %19, align 8
  %84 = getelementptr inbounds [10 x double], ptr %8, i64 0, i64 9
  %85 = load double, ptr %84, align 8
  %86 = call double @llvm.fmuladd.f64(double %82, double %83, double %85)
  store double %86, ptr %84, align 8
  %87 = load double, ptr %12, align 8
  %88 = load double, ptr %19, align 8
  %89 = getelementptr inbounds [10 x double], ptr %8, i64 0, i64 8
  %90 = load double, ptr %89, align 16
  %91 = call double @llvm.fmuladd.f64(double %87, double %88, double %90)
  store double %91, ptr %89, align 16
  %92 = load double, ptr %13, align 8
  %93 = load i32, ptr %7, align 4
  %94 = sitofp i32 %93 to double
  %95 = getelementptr inbounds [10 x double], ptr %8, i64 0, i64 7
  %96 = load double, ptr %95, align 8
  %97 = call double @llvm.fmuladd.f64(double %92, double %94, double %96)
  store double %97, ptr %95, align 8
  %98 = load double, ptr %14, align 8
  %99 = getelementptr inbounds [10 x double], ptr %8, i64 0, i64 6
  %100 = load double, ptr %99, align 16
  %101 = fadd double %100, %98
  store double %101, ptr %99, align 16
  %102 = load double, ptr %11, align 8
  %103 = load double, ptr %19, align 8
  %104 = getelementptr inbounds [10 x double], ptr %8, i64 0, i64 5
  %105 = load double, ptr %104, align 8
  %106 = call double @llvm.fmuladd.f64(double %102, double %103, double %105)
  store double %106, ptr %104, align 8
  %107 = load double, ptr %12, align 8
  %108 = load i32, ptr %7, align 4
  %109 = sitofp i32 %108 to double
  %110 = getelementptr inbounds [10 x double], ptr %8, i64 0, i64 4
  %111 = load double, ptr %110, align 16
  %112 = call double @llvm.fmuladd.f64(double %107, double %109, double %111)
  store double %112, ptr %110, align 16
  %113 = load double, ptr %13, align 8
  %114 = getelementptr inbounds [10 x double], ptr %8, i64 0, i64 3
  %115 = load double, ptr %114, align 8
  %116 = fadd double %115, %113
  store double %116, ptr %114, align 8
  %117 = load double, ptr %18, align 8
  %118 = getelementptr inbounds [10 x double], ptr %8, i64 0, i64 2
  %119 = load double, ptr %118, align 16
  %120 = fadd double %119, %117
  store double %120, ptr %118, align 16
  %121 = load double, ptr %12, align 8
  %122 = getelementptr inbounds [10 x double], ptr %8, i64 0, i64 1
  %123 = load double, ptr %122, align 8
  %124 = fadd double %123, %121
  store double %124, ptr %122, align 8
  %125 = load double, ptr %11, align 8
  %126 = getelementptr inbounds [10 x double], ptr %8, i64 0, i64 0
  %127 = load double, ptr %126, align 16
  %128 = fadd double %127, %125
  store double %128, ptr %126, align 16
  br label %129

129:                                              ; preds = %73
  %130 = load i32, ptr %7, align 4
  %131 = add nsw i32 %130, 1
  store i32 %131, ptr %7, align 4
  br label %23, !llvm.loop !19

132:                                              ; preds = %23
  store i32 0, ptr %6, align 4
  br label %133

133:                                              ; preds = %145, %132
  %134 = load i32, ptr %6, align 4
  %135 = icmp slt i32 %134, 10
  br i1 %135, label %136, label %148

136:                                              ; preds = %133
  %137 = load i32, ptr %6, align 4
  %138 = sext i32 %137 to i64
  %139 = getelementptr inbounds [10 x double], ptr %8, i64 0, i64 %138
  %140 = load double, ptr %139, align 8
  %141 = load ptr, ptr %4, align 8
  %142 = load i32, ptr %6, align 4
  %143 = sext i32 %142 to i64
  %144 = getelementptr inbounds double, ptr %141, i64 %143
  store double %140, ptr %144, align 8
  br label %145

145:                                              ; preds = %136
  %146 = load i32, ptr %6, align 4
  %147 = add nsw i32 %146, 1
  store i32 %147, ptr %6, align 4
  br label %133, !llvm.loop !20

148:                                              ; preds = %133
  ret void
}